target datalayout = "e-m:e-p270:32:32-p271:32:32-p272:64:64-i64:64-i128:128-f80:128-n8:16:32:64-S128"
target triple = "x86_64-pc-linux-gnu"

%struct.EC_builtin_curve = type { i32, ptr }
%struct.rbimpl_size_mul_overflow_tag = type { i8, i64 }

@rb_eRuntimeError = external global i64, align 8
@.str.56 = private unnamed_addr constant [22 x i8] c"EC_get_builtin_curves\00", align 1

; Function Attrs: inlinehint nounwind sspstrong willreturn memory(none) uwtable
define internal { i8, i64 } @rbimpl_size_mul_overflow(i64 noundef %0, i64 noundef %1) #3 {
  %3 = alloca %struct.rbimpl_size_mul_overflow_tag, align 8
  %4 = alloca i64, align 8
  %5 = alloca i64, align 8
  store i64 %0, ptr %4, align 8, !tbaa !6
  store i64 %1, ptr %5, align 8, !tbaa !6
  call void @llvm.memset.p0.i64(ptr align 8 %3, i8 0, i64 16, i1 false)
  %6 = load i64, ptr %4, align 8, !tbaa !6
  %7 = load i64, ptr %5, align 8, !tbaa !6
  %8 = getelementptr inbounds nuw %struct.rbimpl_size_mul_overflow_tag, ptr %3, i32 0, i32 1
  %9 = call { i64, i1 } @llvm.umul.with.overflow.i64(i64 %6, i64 %7)
  %10 = extractvalue { i64, i1 } %9, 1
  %11 = extractvalue { i64, i1 } %9, 0
  store i64 %11, ptr %8, align 8
  %12 = getelementptr inbounds nuw %struct.rbimpl_size_mul_overflow_tag, ptr %3, i32 0, i32 0
  %13 = zext i1 %10 to i8
  store i8 %13, ptr %12, align 8, !tbaa !41
  %14 = load { i8, i64 }, ptr %3, align 8
  ret { i8, i64 } %14
}

; Function Attrs: inlinehint nounwind sspstrong uwtable
define internal i64 @rbimpl_size_mul_or_raise(i64 noundef %0, i64 noundef %1) #2 {
  %3 = alloca i64, align 8
  %4 = alloca i64, align 8
  %5 = alloca %struct.rbimpl_size_mul_overflow_tag, align 8
  store i64 %0, ptr %3, align 8, !tbaa !6
  store i64 %1, ptr %4, align 8, !tbaa !6
  call void @llvm.lifetime.start.p0(i64 16, ptr %5) #19
  %6 = load i64, ptr %3, align 8, !tbaa !6
  %7 = load i64, ptr %4, align 8, !tbaa !6
  %8 = call { i8, i64 } @rbimpl_size_mul_overflow(i64 noundef %6, i64 noundef %7) #18
  %9 = getelementptr inbounds nuw { i8, i64 }, ptr %5, i32 0, i32 0
  %10 = extractvalue { i8, i64 } %8, 0
  store i8 %10, ptr %9, align 8
  %11 = getelementptr inbounds nuw { i8, i64 }, ptr %5, i32 0, i32 1
  %12 = extractvalue { i8, i64 } %8, 1
  store i64 %12, ptr %11, align 8
  %13 = getelementptr inbounds nuw %struct.rbimpl_size_mul_overflow_tag, ptr %5, i32 0, i32 0
  %14 = load i8, ptr %13, align 8, !tbaa !41, !range !44, !noundef !45
  %15 = trunc i8 %14 to i1
  %16 = xor i1 %15, true
  %17 = xor i1 %16, true
  %18 = xor i1 %17, true
  %19 = zext i1 %18 to i32
  %20 = sext i32 %19 to i64
  %21 = call i64 @llvm.expect.i64(i64 %20, i64 1)
  %22 = icmp ne i64 %21, 0
  br i1 %22, label %23, label %26

23:                                               ; preds = %2
  %24 = getelementptr inbounds nuw %struct.rbimpl_size_mul_overflow_tag, ptr %5, i32 0, i32 1
  %25 = load i64, ptr %24, align 8, !tbaa !46
  call void @llvm.lifetime.end.p0(i64 16, ptr %5) #19
  ret i64 %25

26:                                               ; preds = %2
  %27 = load i64, ptr %3, align 8, !tbaa !6
  %28 = load i64, ptr %4, align 8, !tbaa !6
  call void @ruby_malloc_size_overflow(i64 noundef %27, i64 noundef %28) #20
  unreachable
}

; Function Attrs: inlinehint nounwind sspstrong uwtable
define internal i32 @rb_long2int_inline(i64 noundef %0) #2 {
  %2 = alloca i64, align 8
  %3 = alloca i32, align 4
  store i64 %0, ptr %2, align 8, !tbaa !6
  call void @llvm.lifetime.start.p0(i64 4, ptr %3) #19
  %4 = load i64, ptr %2, align 8, !tbaa !6
  %5 = trunc i64 %4 to i32
  store i32 %5, ptr %3, align 4, !tbaa !10
  %6 = load i32, ptr %3, align 4, !tbaa !10
  %7 = sext i32 %6 to i64
  %8 = load i64, ptr %2, align 8, !tbaa !6
  %9 = icmp ne i64 %7, %8
  br i1 %9, label %10, label %12

10:                                               ; preds = %1
  %11 = load i64, ptr %2, align 8, !tbaa !6
  call void @rb_out_of_int(i64 noundef %11) #23
  unreachable

12:                                               ; preds = %1
  %13 = load i32, ptr %3, align 4, !tbaa !10
  call void @llvm.lifetime.end.p0(i64 4, ptr %3) #19
  ret i32 %13
}

; Function Attrs: nounwind sspstrong uwtable
define internal i64 @ossl_s_builtin_curves(i64 noundef %0) #0 {
  %2 = alloca i64, align 8
  %3 = alloca i64, align 8
  %4 = alloca ptr, align 8
  %5 = alloca i32, align 4
  %6 = alloca i32, align 4
  %7 = alloca i64, align 8
  %8 = alloca i64, align 8
  %9 = alloca i32, align 4
  %10 = alloca ptr, align 8
  %11 = alloca ptr, align 8
  store i64 %0, ptr %3, align 8, !tbaa !6
  call void @llvm.lifetime.start.p0(i64 8, ptr %4) #19
  store ptr null, ptr %4, align 8, !tbaa !12
  call void @llvm.lifetime.start.p0(i64 4, ptr %5) #19
  call void @llvm.lifetime.start.p0(i64 4, ptr %6) #19
  %12 = call i64 @EC_get_builtin_curves(ptr noundef null, i64 noundef 0)
  %13 = call i32 @rb_long2int_inline(i64 noundef %12)
  store i32 %13, ptr %6, align 4, !tbaa !10
  call void @llvm.lifetime.start.p0(i64 8, ptr %7) #19
  call void @llvm.lifetime.start.p0(i64 8, ptr %8) #19
  %14 = load i32, ptr %6, align 4, !tbaa !10
  %15 = sext i32 %14 to i64
  %16 = call i64 @rbimpl_size_mul_or_raise(i64 noundef 16, i64 noundef %15)
  %17 = alloca i8, i64 %16, align 16
  store ptr %17, ptr %4, align 8, !tbaa !12
  %18 = load ptr, ptr %4, align 8, !tbaa !12
  %19 = icmp eq ptr %18, null
  br i1 %19, label %20, label %21

20:                                               ; preds = %1
  store i64 4, ptr %2, align 8
  store i32 1, ptr %9, align 4
  br label %74

21:                                               ; preds = %1
  %22 = load ptr, ptr %4, align 8, !tbaa !12
  %23 = load i32, ptr %6, align 4, !tbaa !10
  %24 = sext i32 %23 to i64
  %25 = call i64 @EC_get_builtin_curves(ptr noundef %22, i64 noundef %24)
  %26 = icmp ne i64 %25, 0
  br i1 %26, label %29, label %27

27:                                               ; preds = %21
  %28 = load i64, ptr @rb_eRuntimeError, align 8, !tbaa !6
  call void (i64, ptr, ...) @ossl_raise(i64 noundef %28, ptr noundef @.str.56) #20
  unreachable

29:                                               ; preds = %21
  %30 = load i32, ptr %6, align 4, !tbaa !10
  %31 = sext i32 %30 to i64
  %32 = call i64 @rb_ary_new_capa(i64 noundef %31)
  store i64 %32, ptr %8, align 8, !tbaa !6
  store i32 0, ptr %5, align 4, !tbaa !10
  br label %33

33:                                               ; preds = %69, %29
  %34 = load i32, ptr %5, align 4, !tbaa !10
  %35 = load i32, ptr %6, align 4, !tbaa !10
  %36 = icmp slt i32 %34, %35
  br i1 %36, label %37, label %72

37:                                               ; preds = %33
  call void @llvm.lifetime.start.p0(i64 8, ptr %10) #19
  %38 = load ptr, ptr %4, align 8, !tbaa !12
  %39 = load i32, ptr %5, align 4, !tbaa !10
  %40 = sext i32 %39 to i64
  %41 = getelementptr inbounds %struct.EC_builtin_curve, ptr %38, i64 %40
  %42 = getelementptr inbounds nuw %struct.EC_builtin_curve, ptr %41, i32 0, i32 0
  %43 = load i32, ptr %42, align 8, !tbaa !14
  %44 = call ptr @OBJ_nid2sn(i32 noundef %43)
  store ptr %44, ptr %10, align 8, !tbaa !17
  call void @llvm.lifetime.start.p0(i64 8, ptr %11) #19
  %45 = load ptr, ptr %4, align 8, !tbaa !12
  %46 = load i32, ptr %5, align 4, !tbaa !10
  %47 = sext i32 %46 to i64
  %48 = getelementptr inbounds %struct.EC_builtin_curve, ptr %45, i64 %47
  %49 = getelementptr inbounds nuw %struct.EC_builtin_curve, ptr %48, i32 0, i32 1
  %50 = load ptr, ptr %49, align 8, !tbaa !18
  store ptr %50, ptr %11, align 8, !tbaa !17
  %51 = call i64 @rb_ary_new_capa(i64 noundef 2)
  store i64 %51, ptr %7, align 8, !tbaa !6
  %52 = load i64, ptr %7, align 8, !tbaa !6
  %53 = load ptr, ptr %10, align 8, !tbaa !17
  %54 = call i64 @rb_str_new_cstr(ptr noundef %53)
  %55 = call i64 @rb_ary_push(i64 noundef %52, i64 noundef %54)
  %56 = load i64, ptr %7, align 8, !tbaa !6
  %57 = load ptr, ptr %11, align 8, !tbaa !17
  %58 = icmp ne ptr %57, null
  br i1 %58, label %59, label %62

59:                                               ; preds = %37
  %60 = load ptr, ptr %11, align 8, !tbaa !17
  %61 = call i64 @rb_str_new_cstr(ptr noundef %60)
  br label %63

62:                                               ; preds = %37
  br label %63

63:                                               ; preds = %62, %59
  %64 = phi i64 [ %61, %59 ], [ 4, %62 ]
  %65 = call i64 @rb_ary_push(i64 noundef %56, i64 noundef %64)
  %66 = load i64, ptr %8, align 8, !tbaa !6
  %67 = load i64, ptr %7, align 8, !tbaa !6
  %68 = call i64 @rb_ary_push(i64 noundef %66, i64 noundef %67)
  call void @llvm.lifetime.end.p0(i64 8, ptr %11) #19
  call void @llvm.lifetime.end.p0(i64 8, ptr %10) #19
  br label %69

69:                                               ; preds = %63
  %70 = load i32, ptr %5, align 4, !tbaa !10
  %71 = add nsw i32 %70, 1
  store i32 %71, ptr %5, align 4, !tbaa !10
  br label %33, !llvm.loop !19

72:                                               ; preds = %33
  %73 = load i64, ptr %8, align 8, !tbaa !6
  store i64 %73, ptr %2, align 8
  store i32 1, ptr %9, align 4
  br label %74

74:                                               ; preds = %72, %20
  call void @llvm.lifetime.end.p0(i64 8, ptr %8) #19
  call void @llvm.lifetime.end.p0(i64 8, ptr %7) #19
  call void @llvm.lifetime.end.p0(i64 4, ptr %6) #19
  call void @llvm.lifetime.end.p0(i64 4, ptr %5) #19
  call void @llvm.lifetime.end.p0(i64 8, ptr %4) #19
  %75 = load i64, ptr %2, align 8
  ret i64 %75
}