; Function Attrs: nounwind sspstrong uwtable
define internal i64 @ossl_s_builtin_curves(i64 %0) #0 {
  %2 = tail call i64 @EC_get_builtin_curves(ptr noundef null, i64 noundef 0) #7
  %3 = add i64 %2, 2147483648
  %.not.i = icmp ult i64 %3, 4294967296
  br i1 %.not.i, label %rb_long2int_inline.exit, label %4

4:                                                ; preds = %1
  tail call void @rb_out_of_int(i64 noundef %2) #8
  unreachable

rb_long2int_inline.exit:                          ; preds = %1
  %5 = trunc i64 %2 to i32
  %6 = icmp ugt i64 %2, 1152921504606846975
  br i1 %6, label %7, label %rbimpl_size_mul_or_raise.exit, !prof !10

7:                                                ; preds = %rb_long2int_inline.exit
  tail call void @ruby_malloc_size_overflow(i64 noundef 16, i64 noundef range(i64 -2147483648, 2147483648) %2) #9
  unreachable

rbimpl_size_mul_or_raise.exit:                    ; preds = %rb_long2int_inline.exit
  %8 = shl nuw i64 %2, 4
  %9 = and i64 %8, 68719476720
  %10 = alloca i8, i64 %9, align 16
  %11 = call i64 @EC_get_builtin_curves(ptr noundef nonnull %10, i64 noundef %2) #7
  %.not = icmp eq i64 %11, 0
  br i1 %.not, label %12, label %14

12:                                               ; preds = %rbimpl_size_mul_or_raise.exit
  %13 = load i64, ptr @rb_eRuntimeError, align 8, !tbaa !6
  call void (i64, ptr, ...) @ossl_raise(i64 noundef %13, ptr noundef nonnull @.str.56) #9
  unreachable

14:                                               ; preds = %rbimpl_size_mul_or_raise.exit
  %15 = call i64 @rb_ary_new_capa(i64 noundef %2) #7
  %16 = icmp sgt i32 %5, 0
  br i1 %16, label %.lr.ph.preheader, label %._crit_edge

.lr.ph.preheader:                                 ; preds = %14
  %wide.trip.count = and i64 %2, 2147483647
  br label %.lr.ph

.lr.ph:                                           ; preds = %.lr.ph.preheader, %27
  %indvars.iv = phi i64 [ 0, %.lr.ph.preheader ], [ %indvars.iv.next, %27 ]
  %17 = getelementptr inbounds nuw %struct.EC_builtin_curve, ptr %10, i64 %indvars.iv
  %18 = load i32, ptr %17, align 16, !tbaa !11
  %19 = call ptr @OBJ_nid2sn(i32 noundef %18) #7
  %20 = getelementptr inbounds nuw i8, ptr %17, i64 8
  %21 = load ptr, ptr %20, align 8, !tbaa !16
  %22 = call i64 @rb_ary_new_capa(i64 noundef 2) #7
  %23 = call i64 @rb_str_new_cstr(ptr noundef %19) #7
  %24 = call i64 @rb_ary_push(i64 noundef %22, i64 noundef %23) #7
  %.not22 = icmp eq ptr %21, null
  br i1 %.not22, label %27, label %25

25:                                               ; preds = %.lr.ph
  %26 = call i64 @rb_str_new_cstr(ptr noundef nonnull %21) #7
  br label %27

27:                                               ; preds = %.lr.ph, %25
  %28 = phi i64 [ %26, %25 ], [ 4, %.lr.ph ]
  %29 = call i64 @rb_ary_push(i64 noundef %22, i64 noundef %28) #7
  %30 = call i64 @rb_ary_push(i64 noundef %15, i64 noundef %22) #7
  %indvars.iv.next = add nuw nsw i64 %indvars.iv, 1
  %exitcond.not = icmp eq i64 %indvars.iv.next, %wide.trip.count
  br i1 %exitcond.not, label %._crit_edge, label %.lr.ph, !llvm.loop !17

._crit_edge:                                      ; preds = %27, %14
  ret i64 %15
}